target datalayout = "e-m:e-p270:32:32-p271:32:32-p272:64:64-i64:64-i128:128-f80:128-n8:16:32:64-S128"
target triple = "x86_64-pc-linux-gnu"

%struct.evp_pkey_st = type { i32, i32, ptr, ptr, ptr, %union.legacy_pkey_st, %union.legacy_pkey_st, %struct.CRYPTO_REF_COUNT, ptr, ptr, i32, i8, %struct.crypto_ex_data_st, ptr, ptr, i64, ptr, i64, %struct.anon }
%union.legacy_pkey_st = type { ptr }
%struct.CRYPTO_REF_COUNT = type { i32 }
%struct.crypto_ex_data_st = type { ptr, ptr }
%struct.anon = type { i32, i32, i32 }
%struct.evp_pkey_asn1_method_st = type { i32, i32, i64, ptr, ptr, ptr, ptr, ptr, ptr, ptr, ptr, ptr, ptr, ptr, ptr, ptr, ptr, ptr, ptr, ptr, ptr, ptr, ptr, ptr, ptr, ptr, ptr, ptr, ptr, ptr, ptr, ptr, ptr, ptr, ptr, ptr, ptr, ptr, ptr, ptr, ptr }

@.str = private unnamed_addr constant [30 x i8] c"../openssl/crypto/evp/p_lib.c\00", align 1
@__func__.evp_pkey_get0_ECX_KEY = private unnamed_addr constant [22 x i8] c"evp_pkey_get0_ECX_KEY\00", align 1

; Function Attrs: nounwind uwtable
define i32 @EVP_PKEY_type(i32 noundef %0) #0 {
  %2 = alloca i32, align 4
  %3 = alloca i32, align 4
  %4 = alloca ptr, align 8
  %5 = alloca ptr, align 8
  store i32 %0, ptr %2, align 4, !tbaa !8
  call void @llvm.lifetime.start.p0(i64 4, ptr %3) #8
  call void @llvm.lifetime.start.p0(i64 8, ptr %4) #8
  call void @llvm.lifetime.start.p0(i64 8, ptr %5) #8
  %6 = load i32, ptr %2, align 4, !tbaa !8
  %7 = call ptr @EVP_PKEY_asn1_find(ptr noundef %5, i32 noundef %6)
  store ptr %7, ptr %4, align 8, !tbaa !70
  %8 = load ptr, ptr %4, align 8, !tbaa !70
  %9 = icmp ne ptr %8, null
  br i1 %9, label %10, label %14

10:                                               ; preds = %1
  %11 = load ptr, ptr %4, align 8, !tbaa !70
  %12 = getelementptr inbounds nuw %struct.evp_pkey_asn1_method_st, ptr %11, i32 0, i32 0
  %13 = load i32, ptr %12, align 8, !tbaa !94
  store i32 %13, ptr %3, align 4, !tbaa !8
  br label %15

14:                                               ; preds = %1
  store i32 0, ptr %3, align 4, !tbaa !8
  br label %15

15:                                               ; preds = %14, %10
  %16 = load ptr, ptr %5, align 8, !tbaa !69
  %17 = call i32 @ENGINE_finish(ptr noundef %16)
  %18 = load i32, ptr %3, align 4, !tbaa !8
  call void @llvm.lifetime.end.p0(i64 8, ptr %5) #8
  call void @llvm.lifetime.end.p0(i64 8, ptr %4) #8
  call void @llvm.lifetime.end.p0(i64 4, ptr %3) #8
  ret i32 %18
}

; Function Attrs: nounwind uwtable
define i32 @EVP_PKEY_get_base_id(ptr noundef %0) #0 {
  %2 = alloca ptr, align 8
  store ptr %0, ptr %2, align 8, !tbaa !3
  %3 = load ptr, ptr %2, align 8, !tbaa !3
  %4 = getelementptr inbounds nuw %struct.evp_pkey_st, ptr %3, i32 0, i32 0
  %5 = load i32, ptr %4, align 8, !tbaa !29
  %6 = call i32 @EVP_PKEY_type(i32 noundef %5)
  ret i32 %6
}

; Function Attrs: nounwind uwtable
define internal ptr @evp_pkey_get0_ECX_KEY(ptr noundef %0, i32 noundef %1) #0 {
  %3 = alloca ptr, align 8
  %4 = alloca ptr, align 8
  %5 = alloca i32, align 4
  store ptr %0, ptr %4, align 8, !tbaa !3
  store i32 %1, ptr %5, align 4, !tbaa !8
  %6 = load ptr, ptr %4, align 8, !tbaa !3
  %7 = call i32 @EVP_PKEY_get_base_id(ptr noundef %6)
  %8 = load i32, ptr %5, align 4, !tbaa !8
  %9 = icmp ne i32 %7, %8
  br i1 %9, label %10, label %11

10:                                               ; preds = %2
  call void @ERR_new()
  call void @ERR_set_debug(ptr noundef @.str, i32 noundef 919, ptr noundef @__func__.evp_pkey_get0_ECX_KEY)
  call void (i32, i32, ptr, ...) @ERR_set_error(i32 noundef 6, i32 noundef 219, ptr noundef null)
  store ptr null, ptr %3, align 8
  br label %14

11:                                               ; preds = %2
  %12 = load ptr, ptr %4, align 8, !tbaa !3
  %13 = call ptr @evp_pkey_get_legacy(ptr noundef %12)
  store ptr %13, ptr %3, align 8
  br label %14

14:                                               ; preds = %11, %10
  %15 = load ptr, ptr %3, align 8
  ret ptr %15
}

; Function Attrs: nounwind uwtable
define internal ptr @evp_pkey_get1_ECX_KEY(ptr noundef %0, i32 noundef %1) #0 {
  %3 = alloca ptr, align 8
  %4 = alloca i32, align 4
  %5 = alloca ptr, align 8
  store ptr %0, ptr %3, align 8, !tbaa !3
  store i32 %1, ptr %4, align 4, !tbaa !8
  call void @llvm.lifetime.start.p0(i64 8, ptr %5) #8
  %6 = load ptr, ptr %3, align 8, !tbaa !3
  %7 = load i32, ptr %4, align 4, !tbaa !8
  %8 = call ptr @evp_pkey_get0_ECX_KEY(ptr noundef %6, i32 noundef %7)
  store ptr %8, ptr %5, align 8, !tbaa !104
  %9 = load ptr, ptr %5, align 8, !tbaa !104
  %10 = icmp ne ptr %9, null
  br i1 %10, label %11, label %16

11:                                               ; preds = %2
  %12 = load ptr, ptr %5, align 8, !tbaa !104
  %13 = call i32 @ossl_ecx_key_up_ref(ptr noundef %12)
  %14 = icmp ne i32 %13, 0
  br i1 %14, label %16, label %15

15:                                               ; preds = %11
  store ptr null, ptr %5, align 8, !tbaa !104
  br label %16

16:                                               ; preds = %15, %11, %2
  %17 = load ptr, ptr %5, align 8, !tbaa !104
  call void @llvm.lifetime.end.p0(i64 8, ptr %5) #8
  ret ptr %17
}