; Function Attrs: nounwind uwtable
define internal fastcc ptr @evp_pkey_get1_ECX_KEY(ptr noundef captures(address_is_null) %0, i32 noundef range(i32 1034, 1089) %1) unnamed_addr #0 {
  %3 = alloca ptr, align 8
  %4 = load i32, ptr %0, align 8, !tbaa !26
  call void @llvm.lifetime.start.p0(i64 8, ptr nonnull %3) #12
  %5 = call ptr @EVP_PKEY_asn1_find(ptr noundef nonnull %3, i32 noundef %4) #12
  %.not.i.i.i = icmp eq ptr %5, null
  br i1 %.not.i.i.i, label %EVP_PKEY_get_base_id.exit.thread.i, label %EVP_PKEY_get_base_id.exit.i

EVP_PKEY_get_base_id.exit.thread.i:               ; preds = %2
  %6 = load ptr, ptr %3, align 8, !tbaa !61
  %7 = call i32 @ENGINE_finish(ptr noundef %6) #12
  call void @llvm.lifetime.end.p0(i64 8, ptr nonnull %3) #12
  br label %evp_pkey_get0_ECX_KEY.exit.thread

EVP_PKEY_get_base_id.exit.i:                      ; preds = %2
  %8 = load i32, ptr %5, align 8, !tbaa !80
  %9 = load ptr, ptr %3, align 8, !tbaa !61
  %10 = call i32 @ENGINE_finish(ptr noundef %9) #12
  call void @llvm.lifetime.end.p0(i64 8, ptr nonnull %3) #12
  %.not.i = icmp eq i32 %8, %1
  br i1 %.not.i, label %evp_pkey_get0_ECX_KEY.exit, label %evp_pkey_get0_ECX_KEY.exit.thread

evp_pkey_get0_ECX_KEY.exit.thread:                ; preds = %EVP_PKEY_get_base_id.exit.thread.i, %EVP_PKEY_get_base_id.exit.i
  call void @ERR_new() #12
  call void @ERR_set_debug(ptr noundef nonnull @.str, i32 noundef 919, ptr noundef nonnull @__func__.evp_pkey_get0_ECX_KEY) #12
  call void (i32, i32, ptr, ...) @ERR_set_error(i32 noundef 6, i32 noundef 219, ptr noundef null) #12
  br label %14

evp_pkey_get0_ECX_KEY.exit:                       ; preds = %EVP_PKEY_get_base_id.exit.i
  %11 = call ptr @evp_pkey_get_legacy(ptr noundef nonnull %0)
  %.not = icmp eq ptr %11, null
  br i1 %.not, label %14, label %12

12:                                               ; preds = %evp_pkey_get0_ECX_KEY.exit
  %13 = call i32 @ossl_ecx_key_up_ref(ptr noundef nonnull %11) #12
  %.not5 = icmp eq i32 %13, 0
  %spec.select = select i1 %.not5, ptr null, ptr %11
  br label %14

14:                                               ; preds = %evp_pkey_get0_ECX_KEY.exit.thread, %12, %evp_pkey_get0_ECX_KEY.exit
  %.0 = phi ptr [ null, %evp_pkey_get0_ECX_KEY.exit ], [ %spec.select, %12 ], [ null, %evp_pkey_get0_ECX_KEY.exit.thread ]
  ret ptr %.0
}